target datalayout = "e-m:e-p270:32:32-p271:32:32-p272:64:64-i64:64-i128:128-f80:128-n8:16:32:64-S128"
target triple = "x86_64-unknown-linux-gnu"

; Function Attrs: nounwind sspstrong uwtable
define dso_local zeroext i1 @tcg_can_emit_vecop_list(ptr noundef %list, i32 noundef %type, i32 noundef %vece) #0 {
entry:
  %retval = alloca i1, align 1
  %list.addr = alloca ptr, align 8
  %type.addr = alloca i32, align 4
  %vece.addr = alloca i32, align 4
  %opc = alloca i32, align 4
  store ptr %list, ptr %list.addr, align 8
  store i32 %type, ptr %type.addr, align 4
  store i32 %vece, ptr %vece.addr, align 4
  %0 = load ptr, ptr %list.addr, align 8
  %cmp = icmp eq ptr %0, null
  br i1 %cmp, label %if.then, label %if.end

if.then:                                          ; preds = %entry
  store i1 true, ptr %retval, align 1
  br label %return

if.end:                                           ; preds = %entry
  br label %for.cond

for.cond:                                         ; preds = %for.inc, %if.end
  %1 = load ptr, ptr %list.addr, align 8
  %2 = load i32, ptr %1, align 4
  %tobool = icmp ne i32 %2, 0
  br i1 %tobool, label %for.body, label %for.end

for.body:                                         ; preds = %for.cond
  %3 = load ptr, ptr %list.addr, align 8
  %4 = load i32, ptr %3, align 4
  store i32 %4, ptr %opc, align 4
  %5 = load i32, ptr %opc, align 4
  %6 = load i32, ptr %type.addr, align 4
  %7 = load i32, ptr %vece.addr, align 4
  %call = call i32 @tcg_can_emit_vec_op(i32 noundef %5, i32 noundef %6, i32 noundef %7)
  %tobool1 = icmp ne i32 %call, 0
  br i1 %tobool1, label %if.then2, label %if.end3

if.then2:                                         ; preds = %for.body
  br label %for.inc

if.end3:                                          ; preds = %for.body
  %8 = load i32, ptr %opc, align 4
  switch i32 %8, label %sw.default [
    i32 158, label %sw.bb
    i32 159, label %sw.bb8
    i32 161, label %sw.bb20
    i32 163, label %sw.bb28
    i32 192, label %sw.bb36
    i32 164, label %sw.bb36
    i32 166, label %sw.bb36
    i32 165, label %sw.bb36
    i32 167, label %sw.bb36
  ]

sw.bb:                                            ; preds = %if.end3
  %9 = load i32, ptr %type.addr, align 4
  %10 = load i32, ptr %vece.addr, align 4
  %call4 = call i32 @tcg_can_emit_vec_op(i32 noundef 156, i32 noundef %9, i32 noundef %10)
  %tobool5 = icmp ne i32 %call4, 0
  br i1 %tobool5, label %if.then6, label %if.end7

if.then6:                                         ; preds = %sw.bb
  br label %for.inc

if.end7:                                          ; preds = %sw.bb
  br label %sw.epilog

sw.bb8:                                           ; preds = %if.end3
  %11 = load i32, ptr %type.addr, align 4
  %12 = load i32, ptr %vece.addr, align 4
  %call9 = call i32 @tcg_can_emit_vec_op(i32 noundef 156, i32 noundef %11, i32 noundef %12)
  %tobool10 = icmp ne i32 %call9, 0
  br i1 %tobool10, label %land.lhs.true, label %if.end19

land.lhs.true:                                    ; preds = %sw.bb8
  %13 = load i32, ptr %type.addr, align 4
  %14 = load i32, ptr %vece.addr, align 4
  %call11 = call i32 @tcg_can_emit_vec_op(i32 noundef 166, i32 noundef %13, i32 noundef %14)
  %cmp12 = icmp sgt i32 %call11, 0
  br i1 %cmp12, label %if.then18, label %lor.lhs.false

lor.lhs.false:                                    ; preds = %land.lhs.true
  %15 = load i32, ptr %type.addr, align 4
  %16 = load i32, ptr %vece.addr, align 4
  %call13 = call i32 @tcg_can_emit_vec_op(i32 noundef 179, i32 noundef %15, i32 noundef %16)
  %cmp14 = icmp sgt i32 %call13, 0
  br i1 %cmp14, label %if.then18, label %lor.lhs.false15

lor.lhs.false15:                                  ; preds = %lor.lhs.false
  %17 = load i32, ptr %type.addr, align 4
  %18 = load i32, ptr %vece.addr, align 4
  %call16 = call i32 @tcg_can_emit_vec_op(i32 noundef 190, i32 noundef %17, i32 noundef %18)
  %tobool17 = icmp ne i32 %call16, 0
  br i1 %tobool17, label %if.then18, label %if.end19

if.then18:                                        ; preds = %lor.lhs.false15, %lor.lhs.false, %land.lhs.true
  br label %for.inc

if.end19:                                         ; preds = %lor.lhs.false15, %sw.bb8
  br label %sw.epilog

sw.bb20:                                          ; preds = %if.end3
  %19 = load i32, ptr %type.addr, align 4
  %20 = load i32, ptr %vece.addr, align 4
  %call21 = call i32 @tcg_can_emit_vec_op(i32 noundef 165, i32 noundef %19, i32 noundef %20)
  %tobool22 = icmp ne i32 %call21, 0
  br i1 %tobool22, label %if.then26, label %lor.lhs.false23

lor.lhs.false23:                                  ; preds = %sw.bb20
  %21 = load i32, ptr %type.addr, align 4
  %22 = load i32, ptr %vece.addr, align 4
  %call24 = call i32 @tcg_can_emit_vec_op(i32 noundef 190, i32 noundef %21, i32 noundef %22)
  %tobool25 = icmp ne i32 %call24, 0
  br i1 %tobool25, label %if.then26, label %if.end27

if.then26:                                        ; preds = %lor.lhs.false23, %sw.bb20
  br label %for.inc

if.end27:                                         ; preds = %lor.lhs.false23
  br label %sw.epilog

sw.bb28:                                          ; preds = %if.end3
  %23 = load i32, ptr %type.addr, align 4
  %24 = load i32, ptr %vece.addr, align 4
  %call29 = call i32 @tcg_can_emit_vec_op(i32 noundef 167, i32 noundef %23, i32 noundef %24)
  %tobool30 = icmp ne i32 %call29, 0
  br i1 %tobool30, label %if.then34, label %lor.lhs.false31

lor.lhs.false31:                                  ; preds = %sw.bb28
  %25 = load i32, ptr %type.addr, align 4
  %26 = load i32, ptr %vece.addr, align 4
  %call32 = call i32 @tcg_can_emit_vec_op(i32 noundef 190, i32 noundef %25, i32 noundef %26)
  %tobool33 = icmp ne i32 %call32, 0
  br i1 %tobool33, label %if.then34, label %if.end35

if.then34:                                        ; preds = %lor.lhs.false31, %sw.bb28
  br label %for.inc

if.end35:                                         ; preds = %lor.lhs.false31
  br label %sw.epilog

sw.bb36:                                          ; preds = %if.end3, %if.end3, %if.end3, %if.end3, %if.end3
  %27 = load i32, ptr %type.addr, align 4
  %28 = load i32, ptr %vece.addr, align 4
  %call37 = call i32 @tcg_can_emit_vec_op(i32 noundef 190, i32 noundef %27, i32 noundef %28)
  %tobool38 = icmp ne i32 %call37, 0
  br i1 %tobool38, label %if.then39, label %if.end40

if.then39:                                        ; preds = %sw.bb36
  br label %for.inc

if.end40:                                         ; preds = %sw.bb36
  br label %sw.epilog

sw.default:                                       ; preds = %if.end3
  br label %sw.epilog

sw.epilog:                                        ; preds = %sw.default, %if.end40, %if.end35, %if.end27, %if.end19, %if.end7
  store i1 false, ptr %retval, align 1
  br label %return

for.inc:                                          ; preds = %if.then39, %if.then34, %if.then26, %if.then18, %if.then6, %if.then2
  %29 = load ptr, ptr %list.addr, align 8
  %incdec.ptr = getelementptr i32, ptr %29, i32 1
  store ptr %incdec.ptr, ptr %list.addr, align 8
  br label %for.cond, !llvm.loop !5

for.end:                                          ; preds = %for.cond
  store i1 true, ptr %retval, align 1
  br label %return

return:                                           ; preds = %for.end, %sw.epilog, %if.then
  %30 = load i1, ptr %retval, align 1
  ret i1 %30
}