; Function Attrs: nounwind sspstrong uwtable
define dso_local noundef zeroext i1 @tcg_can_emit_vecop_list(ptr noundef readonly %list, i32 noundef %type, i32 noundef %vece) local_unnamed_addr #0 {
entry:
  %cmp = icmp eq ptr %list, null
  br i1 %cmp, label %return, label %for.cond.preheader

for.cond.preheader:                               ; preds = %entry
  %0 = load i32, ptr %list, align 4
  %tobool.not25 = icmp eq i32 %0, 0
  br i1 %tobool.not25, label %return, label %for.body

for.body:                                         ; preds = %for.cond.preheader, %for.inc
  %1 = phi i32 [ %2, %for.inc ], [ %0, %for.cond.preheader ]
  %list.addr.026 = phi ptr [ %incdec.ptr, %for.inc ], [ %list, %for.cond.preheader ]
  %call = tail call i32 @tcg_can_emit_vec_op(i32 noundef %1, i32 noundef %type, i32 noundef %vece) #5
  %tobool1.not = icmp eq i32 %call, 0
  br i1 %tobool1.not, label %if.end3, label %for.inc

if.end3:                                          ; preds = %for.body
  switch i32 %1, label %return [
    i32 158, label %sw.bb
    i32 159, label %sw.bb8
    i32 161, label %sw.bb20
    i32 163, label %sw.bb28
    i32 192, label %sw.bb36
    i32 164, label %sw.bb36
    i32 166, label %sw.bb36
    i32 165, label %sw.bb36
    i32 167, label %sw.bb36
  ]

sw.bb:                                            ; preds = %if.end3
  %call4 = tail call i32 @tcg_can_emit_vec_op(i32 noundef 156, i32 noundef %type, i32 noundef %vece) #5
  %tobool5.not = icmp eq i32 %call4, 0
  br i1 %tobool5.not, label %return, label %for.inc

sw.bb8:                                           ; preds = %if.end3
  %call9 = tail call i32 @tcg_can_emit_vec_op(i32 noundef 156, i32 noundef %type, i32 noundef %vece) #5
  %tobool10.not = icmp eq i32 %call9, 0
  br i1 %tobool10.not, label %return, label %land.lhs.true

land.lhs.true:                                    ; preds = %sw.bb8
  %call11 = tail call i32 @tcg_can_emit_vec_op(i32 noundef 166, i32 noundef %type, i32 noundef %vece) #5
  %cmp12 = icmp sgt i32 %call11, 0
  br i1 %cmp12, label %for.inc, label %lor.lhs.false

lor.lhs.false:                                    ; preds = %land.lhs.true
  %call13 = tail call i32 @tcg_can_emit_vec_op(i32 noundef 179, i32 noundef %type, i32 noundef %vece) #5
  %cmp14 = icmp sgt i32 %call13, 0
  br i1 %cmp14, label %for.inc, label %lor.lhs.false15

lor.lhs.false15:                                  ; preds = %lor.lhs.false
  %call16 = tail call i32 @tcg_can_emit_vec_op(i32 noundef 190, i32 noundef %type, i32 noundef %vece) #5
  %tobool17.not = icmp eq i32 %call16, 0
  br i1 %tobool17.not, label %return, label %for.inc

sw.bb20:                                          ; preds = %if.end3
  %call21 = tail call i32 @tcg_can_emit_vec_op(i32 noundef 165, i32 noundef %type, i32 noundef %vece) #5
  %tobool22.not = icmp eq i32 %call21, 0
  br i1 %tobool22.not, label %lor.lhs.false23, label %for.inc

lor.lhs.false23:                                  ; preds = %sw.bb20
  %call24 = tail call i32 @tcg_can_emit_vec_op(i32 noundef 190, i32 noundef %type, i32 noundef %vece) #5
  %tobool25.not = icmp eq i32 %call24, 0
  br i1 %tobool25.not, label %return, label %for.inc

sw.bb28:                                          ; preds = %if.end3
  %call29 = tail call i32 @tcg_can_emit_vec_op(i32 noundef 167, i32 noundef %type, i32 noundef %vece) #5
  %tobool30.not = icmp eq i32 %call29, 0
  br i1 %tobool30.not, label %lor.lhs.false31, label %for.inc

lor.lhs.false31:                                  ; preds = %sw.bb28
  %call32 = tail call i32 @tcg_can_emit_vec_op(i32 noundef 190, i32 noundef %type, i32 noundef %vece) #5
  %tobool33.not = icmp eq i32 %call32, 0
  br i1 %tobool33.not, label %return, label %for.inc

sw.bb36:                                          ; preds = %if.end3, %if.end3, %if.end3, %if.end3, %if.end3
  %call37 = tail call i32 @tcg_can_emit_vec_op(i32 noundef 190, i32 noundef %type, i32 noundef %vece) #5
  %tobool38.not = icmp eq i32 %call37, 0
  br i1 %tobool38.not, label %return, label %for.inc

for.inc:                                          ; preds = %sw.bb36, %sw.bb28, %lor.lhs.false31, %sw.bb20, %lor.lhs.false23, %land.lhs.true, %lor.lhs.false, %lor.lhs.false15, %sw.bb, %for.body
  %incdec.ptr = getelementptr i8, ptr %list.addr.026, i64 4
  %2 = load i32, ptr %incdec.ptr, align 4
  %tobool.not = icmp eq i32 %2, 0
  br i1 %tobool.not, label %return, label %for.body, !llvm.loop !5

return:                                           ; preds = %if.end3, %sw.bb36, %lor.lhs.false31, %lor.lhs.false23, %sw.bb8, %lor.lhs.false15, %sw.bb, %for.inc, %for.cond.preheader, %entry
  %retval.0 = phi i1 [ true, %entry ], [ true, %for.cond.preheader ], [ false, %if.end3 ], [ false, %sw.bb36 ], [ false, %lor.lhs.false31 ], [ false, %lor.lhs.false23 ], [ false, %sw.bb8 ], [ false, %lor.lhs.false15 ], [ false, %sw.bb ], [ true, %for.inc ]
  ret i1 %retval.0
}